; ModuleID = 'source-C-CXX/43/507.cpp'
source_filename = "source-C-CXX/43/507.cpp"
target datalayout = "e-m:e-p270:32:32-p271:32:32-p272:64:64-i64:64-f80:128-n8:16:32:64-S128"
target triple = "x86_64-pc-linux-gnu"

%"class.std::ios_base::Init" = type { i8 }
%"class.std::basic_istream" = type { i32 (...)**, i64, %"class.std::basic_ios" }
%"class.std::basic_ios" = type { %"class.std::ios_base", %"class.std::basic_ostream"*, i8, i8, %"class.std::basic_streambuf"*, %"class.std::ctype"*, %"class.std::num_put"*, %"class.std::num_get"* }
%"class.std::ios_base" = type { i32 (...)**, i64, i64, i32, i32, i32, %"struct.std::ios_base::_Callback_list"*, %"struct.std::ios_base::_Words", [8 x %"struct.std::ios_base::_Words"], i32, %"struct.std::ios_base::_Words"*, %"class.std::locale" }
%"struct.std::ios_base::_Callback_list" = type { %"struct.std::ios_base::_Callback_list"*, void (i32, %"class.std::ios_base"*, i32)*, i32, i32 }
%"struct.std::ios_base::_Words" = type { i8*, i64 }
%"class.std::locale" = type { %"class.std::locale::_Impl"* }
%"class.std::locale::_Impl" = type { i32, %"class.std::locale::facet"**, i64, %"class.std::locale::facet"**, i8** }
%"class.std::locale::facet" = type <{ i32 (...)**, i32, [4 x i8] }>
%"class.std::basic_ostream" = type { i32 (...)**, %"class.std::basic_ios" }
%"class.std::basic_streambuf" = type { i32 (...)**, i8*, i8*, i8*, i8*, i8*, i8*, %"class.std::locale" }
%"class.std::ctype" = type <{ %"class.std::locale::facet.base", [4 x i8], %struct.__locale_struct*, i8, [7 x i8], i32*, i32*, i16*, i8, [256 x i8], [256 x i8], i8, [6 x i8] }>
%"class.std::locale::facet.base" = type <{ i32 (...)**, i32 }>
%struct.__locale_struct = type { [13 x %struct.__locale_data*], i16*, i32*, i32*, [13 x i8*] }
%struct.__locale_data = type opaque
%"class.std::num_put" = type { %"class.std::locale::facet.base", [4 x i8] }
%"class.std::num_get" = type { %"class.std::locale::facet.base", [4 x i8] }

@_ZStL8__ioinit = internal global %"class.std::ios_base::Init" zeroinitializer, align 1
@__dso_handle = external hidden global i8
@_ZSt3cin = external global %"class.std::basic_istream", align 8
@_ZSt4cout = external global %"class.std::basic_ostream", align 8
@llvm.global_ctors = appending global [1 x { i32, void ()*, i8* }] [{ i32, void ()*, i8* } { i32 65535, void ()* @_GLOBAL__sub_I_507.cpp, i8* null }]

declare void @_ZNSt8ios_base4InitC1Ev(%"class.std::ios_base::Init"* nonnull align 1 dereferenceable(1)) unnamed_addr #0

; Function Attrs: nounwind
declare void @_ZNSt8ios_base4InitD1Ev(%"class.std::ios_base::Init"* nonnull align 1 dereferenceable(1)) unnamed_addr #1

; Function Attrs: nofree nounwind
declare i32 @__cxa_atexit(void (i8*)*, i8*, i8*) local_unnamed_addr #2

; Function Attrs: mustprogress nofree nosync nounwind readnone sspstrong uwtable willreturn
define dso_local i32 @_Z7reversei(i32 %0) local_unnamed_addr #3 {
  %2 = alloca [20 x i32], align 16
  %3 = bitcast [20 x i32]* %2 to i8*
  call void @llvm.lifetime.start.p0i8(i64 80, i8* nonnull %3) #8
  %4 = icmp sgt i32 %0, 0
  %5 = sub nsw i32 0, %0
  %6 = select i1 %4, i32 %0, i32 %5
  %7 = icmp eq i32 %6, 0
  br i1 %7, label %68, label %18

8:                                                ; preds = %18
  %9 = trunc i64 %24 to i32
  %10 = icmp eq i32 %9, 0
  br i1 %10, label %68, label %11

11:                                               ; preds = %8
  %12 = and i64 %24, 4294967295
  %13 = add nsw i64 %12, -1
  %14 = and i64 %24, 3
  %15 = icmp ult i64 %13, 3
  br i1 %15, label %52, label %16

16:                                               ; preds = %11
  %17 = sub nsw i64 %12, %14
  br label %26

18:                                               ; preds = %1, %18
  %19 = phi i64 [ %24, %18 ], [ 0, %1 ]
  %20 = phi i32 [ %23, %18 ], [ %6, %1 ]
  %21 = urem i32 %20, 10
  %22 = getelementptr inbounds [20 x i32], [20 x i32]* %2, i64 0, i64 %19
  store i32 %21, i32* %22, align 4, !tbaa !5
  %23 = udiv i32 %20, 10
  %24 = add nuw i64 %19, 1
  %25 = icmp ult i32 %20, 10
  br i1 %25, label %8, label %18, !llvm.loop !9

26:                                               ; preds = %26, %16
  %27 = phi i64 [ 0, %16 ], [ %49, %26 ]
  %28 = phi i32 [ 0, %16 ], [ %48, %26 ]
  %29 = phi i64 [ %17, %16 ], [ %50, %26 ]
  %30 = mul nsw i32 %28, 10
  %31 = getelementptr inbounds [20 x i32], [20 x i32]* %2, i64 0, i64 %27
  %32 = load i32, i32* %31, align 16, !tbaa !5
  %33 = add nsw i32 %32, %30
  %34 = or i64 %27, 1
  %35 = mul nsw i32 %33, 10
  %36 = getelementptr inbounds [20 x i32], [20 x i32]* %2, i64 0, i64 %34
  %37 = load i32, i32* %36, align 4, !tbaa !5
  %38 = add nsw i32 %37, %35
  %39 = or i64 %27, 2
  %40 = mul nsw i32 %38, 10
  %41 = getelementptr inbounds [20 x i32], [20 x i32]* %2, i64 0, i64 %39
  %42 = load i32, i32* %41, align 8, !tbaa !5
  %43 = add nsw i32 %42, %40
  %44 = or i64 %27, 3
  %45 = mul nsw i32 %43, 10
  %46 = getelementptr inbounds [20 x i32], [20 x i32]* %2, i64 0, i64 %44
  %47 = load i32, i32* %46, align 4, !tbaa !5
  %48 = add nsw i32 %47, %45
  %49 = add nuw nsw i64 %27, 4
  %50 = add i64 %29, -4
  %51 = icmp eq i64 %50, 0
  br i1 %51, label %52, label %26, !llvm.loop !11

52:                                               ; preds = %26, %11
  %53 = phi i32 [ undef, %11 ], [ %48, %26 ]
  %54 = phi i64 [ 0, %11 ], [ %49, %26 ]
  %55 = phi i32 [ 0, %11 ], [ %48, %26 ]
  %56 = icmp eq i64 %14, 0
  br i1 %56, label %68, label %57

57:                                               ; preds = %52, %57
  %58 = phi i64 [ %65, %57 ], [ %54, %52 ]
  %59 = phi i32 [ %64, %57 ], [ %55, %52 ]
  %60 = phi i64 [ %66, %57 ], [ %14, %52 ]
  %61 = mul nsw i32 %59, 10
  %62 = getelementptr inbounds [20 x i32], [20 x i32]* %2, i64 0, i64 %58
  %63 = load i32, i32* %62, align 4, !tbaa !5
  %64 = add nsw i32 %63, %61
  %65 = add nuw nsw i64 %58, 1
  %66 = add i64 %60, -1
  %67 = icmp eq i64 %66, 0
  br i1 %67, label %68, label %57, !llvm.loop !12

68:                                               ; preds = %52, %57, %1, %8
  %69 = phi i32 [ 0, %8 ], [ 0, %1 ], [ %53, %52 ], [ %64, %57 ]
  %70 = sub nsw i32 0, %69
  %71 = select i1 %4, i32 %69, i32 %70
  call void @llvm.lifetime.end.p0i8(i64 80, i8* nonnull %3) #8
  ret i32 %71
}

; Function Attrs: argmemonly mustprogress nofree nosync nounwind willreturn
declare void @llvm.lifetime.start.p0i8(i64 immarg, i8* nocapture) #4

; Function Attrs: argmemonly mustprogress nofree nosync nounwind willreturn
declare void @llvm.lifetime.end.p0i8(i64 immarg, i8* nocapture) #4

; Function Attrs: mustprogress norecurse sspstrong uwtable
define dso_local i32 @main() local_unnamed_addr #5 {
  %1 = alloca [20 x i32], align 16
  %2 = alloca i32, align 4
  %3 = bitcast i32* %2 to i8*
  call void @llvm.lifetime.start.p0i8(i64 4, i8* nonnull %3) #8
  store i32 0, i32* %2, align 4, !tbaa !5
  %4 = bitcast [20 x i32]* %1 to i8*
  br label %5

5:                                                ; preds = %0, %133
  %6 = phi i32 [ 0, %0 ], [ %134, %133 ]
  %7 = call nonnull align 8 dereferenceable(16) %"class.std::basic_istream"* @_ZNSirsERi(%"class.std::basic_istream"* nonnull align 8 dereferenceable(16) @_ZSt3cin, i32* nonnull align 4 dereferenceable(4) %2)
  %8 = bitcast %"class.std::basic_istream"* %7 to i8**
  %9 = load i8*, i8** %8, align 8, !tbaa !14
  %10 = getelementptr i8, i8* %9, i64 -24
  %11 = bitcast i8* %10 to i64*
  %12 = load i64, i64* %11, align 8
  %13 = bitcast %"class.std::basic_istream"* %7 to i8*
  %14 = add nsw i64 %12, 32
  %15 = getelementptr inbounds i8, i8* %13, i64 %14
  %16 = bitcast i8* %15 to i32*
  %17 = load i32, i32* %16, align 8, !tbaa !16
  %18 = and i32 %17, 5
  %19 = icmp eq i32 %18, 0
  br i1 %19, label %20, label %133

20:                                               ; preds = %5, %116
  %21 = load i32, i32* %2, align 4, !tbaa !5
  call void @llvm.lifetime.start.p0i8(i64 80, i8* nonnull %4) #8
  %22 = icmp sgt i32 %21, 0
  %23 = sub nsw i32 0, %21
  %24 = select i1 %22, i32 %21, i32 %23
  %25 = icmp eq i32 %24, 0
  br i1 %25, label %86, label %36

26:                                               ; preds = %36
  %27 = trunc i64 %42 to i32
  %28 = icmp eq i32 %27, 0
  br i1 %28, label %86, label %29

29:                                               ; preds = %26
  %30 = and i64 %42, 4294967295
  %31 = add nsw i64 %30, -1
  %32 = and i64 %42, 3
  %33 = icmp ult i64 %31, 3
  br i1 %33, label %70, label %34

34:                                               ; preds = %29
  %35 = sub nsw i64 %30, %32
  br label %44

36:                                               ; preds = %20, %36
  %37 = phi i64 [ %42, %36 ], [ 0, %20 ]
  %38 = phi i32 [ %41, %36 ], [ %24, %20 ]
  %39 = urem i32 %38, 10
  %40 = getelementptr inbounds [20 x i32], [20 x i32]* %1, i64 0, i64 %37
  store i32 %39, i32* %40, align 4, !tbaa !5
  %41 = udiv i32 %38, 10
  %42 = add nuw i64 %37, 1
  %43 = icmp ult i32 %38, 10
  br i1 %43, label %26, label %36, !llvm.loop !9

44:                                               ; preds = %44, %34
  %45 = phi i64 [ 0, %34 ], [ %67, %44 ]
  %46 = phi i32 [ 0, %34 ], [ %66, %44 ]
  %47 = phi i64 [ %35, %34 ], [ %68, %44 ]
  %48 = mul nsw i32 %46, 10
  %49 = getelementptr inbounds [20 x i32], [20 x i32]* %1, i64 0, i64 %45
  %50 = load i32, i32* %49, align 16, !tbaa !5
  %51 = add nsw i32 %50, %48
  %52 = or i64 %45, 1
  %53 = mul nsw i32 %51, 10
  %54 = getelementptr inbounds [20 x i32], [20 x i32]* %1, i64 0, i64 %52
  %55 = load i32, i32* %54, align 4, !tbaa !5
  %56 = add nsw i32 %55, %53
  %57 = or i64 %45, 2
  %58 = mul nsw i32 %56, 10
  %59 = getelementptr inbounds [20 x i32], [20 x i32]* %1, i64 0, i64 %57
  %60 = load i32, i32* %59, align 8, !tbaa !5
  %61 = add nsw i32 %60, %58
  %62 = or i64 %45, 3
  %63 = mul nsw i32 %61, 10
  %64 = getelementptr inbounds [20 x i32], [20 x i32]* %1, i64 0, i64 %62
  %65 = load i32, i32* %64, align 4, !tbaa !5
  %66 = add nsw i32 %65, %63
  %67 = add nuw nsw i64 %45, 4
  %68 = add i64 %47, -4
  %69 = icmp eq i64 %68, 0
  br i1 %69, label %70, label %44, !llvm.loop !11

70:                                               ; preds = %44, %29
  %71 = phi i32 [ undef, %29 ], [ %66, %44 ]
  %72 = phi i64 [ 0, %29 ], [ %67, %44 ]
  %73 = phi i32 [ 0, %29 ], [ %66, %44 ]
  %74 = icmp eq i64 %32, 0
  br i1 %74, label %86, label %75

75:                                               ; preds = %70, %75
  %76 = phi i64 [ %83, %75 ], [ %72, %70 ]
  %77 = phi i32 [ %82, %75 ], [ %73, %70 ]
  %78 = phi i64 [ %84, %75 ], [ %32, %70 ]
  %79 = mul nsw i32 %77, 10
  %80 = getelementptr inbounds [20 x i32], [20 x i32]* %1, i64 0, i64 %76
  %81 = load i32, i32* %80, align 4, !tbaa !5
  %82 = add nsw i32 %81, %79
  %83 = add nuw nsw i64 %76, 1
  %84 = add i64 %78, -1
  %85 = icmp eq i64 %84, 0
  br i1 %85, label %86, label %75, !llvm.loop !24

86:                                               ; preds = %70, %75, %20, %26
  %87 = phi i32 [ 0, %26 ], [ 0, %20 ], [ %71, %70 ], [ %82, %75 ]
  %88 = sub nsw i32 0, %87
  %89 = select i1 %22, i32 %87, i32 %88
  call void @llvm.lifetime.end.p0i8(i64 80, i8* nonnull %4) #8
  %90 = call nonnull align 8 dereferenceable(8) %"class.std::basic_ostream"* @_ZNSolsEi(%"class.std::basic_ostream"* nonnull align 8 dereferenceable(8) @_ZSt4cout, i32 %89)
  %91 = bitcast %"class.std::basic_ostream"* %90 to i8**
  %92 = load i8*, i8** %91, align 8, !tbaa !14
  %93 = getelementptr i8, i8* %92, i64 -24
  %94 = bitcast i8* %93 to i64*
  %95 = load i64, i64* %94, align 8
  %96 = bitcast %"class.std::basic_ostream"* %90 to i8*
  %97 = add nsw i64 %95, 240
  %98 = getelementptr inbounds i8, i8* %96, i64 %97
  %99 = bitcast i8* %98 to %"class.std::ctype"**
  %100 = load %"class.std::ctype"*, %"class.std::ctype"** %99, align 8, !tbaa !25
  %101 = icmp eq %"class.std::ctype"* %100, null
  br i1 %101, label %102, label %103

102:                                              ; preds = %86
  call void @_ZSt16__throw_bad_castv() #9
  unreachable

103:                                              ; preds = %86
  %104 = getelementptr inbounds %"class.std::ctype", %"class.std::ctype"* %100, i64 0, i32 8
  %105 = load i8, i8* %104, align 8, !tbaa !28
  %106 = icmp eq i8 %105, 0
  br i1 %106, label %110, label %107

107:                                              ; preds = %103
  %108 = getelementptr inbounds %"class.std::ctype", %"class.std::ctype"* %100, i64 0, i32 9, i64 10
  %109 = load i8, i8* %108, align 1, !tbaa !30
  br label %116

110:                                              ; preds = %103
  call void @_ZNKSt5ctypeIcE13_M_widen_initEv(%"class.std::ctype"* nonnull align 8 dereferenceable(570) %100)
  %111 = bitcast %"class.std::ctype"* %100 to i8 (%"class.std::ctype"*, i8)***
  %112 = load i8 (%"class.std::ctype"*, i8)**, i8 (%"class.std::ctype"*, i8)*** %111, align 8, !tbaa !14
  %113 = getelementptr inbounds i8 (%"class.std::ctype"*, i8)*, i8 (%"class.std::ctype"*, i8)** %112, i64 6
  %114 = load i8 (%"class.std::ctype"*, i8)*, i8 (%"class.std::ctype"*, i8)** %113, align 8
  %115 = call signext i8 %114(%"class.std::ctype"* nonnull align 8 dereferenceable(570) %100, i8 signext 10)
  br label %116

116:                                              ; preds = %107, %110
  %117 = phi i8 [ %109, %107 ], [ %115, %110 ]
  %118 = call nonnull align 8 dereferenceable(8) %"class.std::basic_ostream"* @_ZNSo3putEc(%"class.std::basic_ostream"* nonnull align 8 dereferenceable(8) %90, i8 signext %117)
  %119 = call nonnull align 8 dereferenceable(8) %"class.std::basic_ostream"* @_ZNSo5flushEv(%"class.std::basic_ostream"* nonnull align 8 dereferenceable(8) %118)
  %120 = call nonnull align 8 dereferenceable(16) %"class.std::basic_istream"* @_ZNSirsERi(%"class.std::basic_istream"* nonnull align 8 dereferenceable(16) @_ZSt3cin, i32* nonnull align 4 dereferenceable(4) %2)
  %121 = bitcast %"class.std::basic_istream"* %120 to i8**
  %122 = load i8*, i8** %121, align 8, !tbaa !14
  %123 = getelementptr i8, i8* %122, i64 -24
  %124 = bitcast i8* %123 to i64*
  %125 = load i64, i64* %124, align 8
  %126 = bitcast %"class.std::basic_istream"* %120 to i8*
  %127 = add nsw i64 %125, 32
  %128 = getelementptr inbounds i8, i8* %126, i64 %127
  %129 = bitcast i8* %128 to i32*
  %130 = load i32, i32* %129, align 8, !tbaa !16
  %131 = and i32 %130, 5
  %132 = icmp eq i32 %131, 0
  br i1 %132, label %20, label %133, !llvm.loop !31

133:                                              ; preds = %116, %5
  %134 = add nuw nsw i32 %6, 1
  %135 = icmp eq i32 %134, 6
  br i1 %135, label %136, label %5, !llvm.loop !32

136:                                              ; preds = %133
  call void @llvm.lifetime.end.p0i8(i64 4, i8* nonnull %3) #8
  ret i32 0
}

declare nonnull align 8 dereferenceable(16) %"class.std::basic_istream"* @_ZNSirsERi(%"class.std::basic_istream"* nonnull align 8 dereferenceable(16), i32* nonnull align 4 dereferenceable(4)) local_unnamed_addr #0

declare nonnull align 8 dereferenceable(8) %"class.std::basic_ostream"* @_ZNSolsEi(%"class.std::basic_ostream"* nonnull align 8 dereferenceable(8), i32) local_unnamed_addr #0

declare nonnull align 8 dereferenceable(8) %"class.std::basic_ostream"* @_ZNSo3putEc(%"class.std::basic_ostream"* nonnull align 8 dereferenceable(8), i8 signext) local_unnamed_addr #0

declare nonnull align 8 dereferenceable(8) %"class.std::basic_ostream"* @_ZNSo5flushEv(%"class.std::basic_ostream"* nonnull align 8 dereferenceable(8)) local_unnamed_addr #0

; Function Attrs: noreturn
declare void @_ZSt16__throw_bad_castv() local_unnamed_addr #6

declare void @_ZNKSt5ctypeIcE13_M_widen_initEv(%"class.std::ctype"* nonnull align 8 dereferenceable(570)) local_unnamed_addr #0

; Function Attrs: sspstrong uwtable
define internal void @_GLOBAL__sub_I_507.cpp() #7 section ".text.startup" {
  tail call void @_ZNSt8ios_base4InitC1Ev(%"class.std::ios_base::Init"* nonnull align 1 dereferenceable(1) @_ZStL8__ioinit)
  %1 = tail call i32 @__cxa_atexit(void (i8*)* bitcast (void (%"class.std::ios_base::Init"*)* @_ZNSt8ios_base4InitD1Ev to void (i8*)*), i8* getelementptr inbounds (%"class.std::ios_base::Init", %"class.std::ios_base::Init"* @_ZStL8__ioinit, i64 0, i32 0), i8* nonnull @__dso_handle) #8
  ret void
}


!llvm.module.flags = !{!0, !1, !2, !3}
!llvm.ident = !{!4}

!0 = !{i32 1, !"wchar_size", i32 4}
!1 = !{i32 7, !"PIC Level", i32 2}
!2 = !{i32 7, !"PIE Level", i32 2}
!3 = !{i32 7, !"uwtable", i32 1}
!4 = !{!"clang version 13.0.0"}
!5 = !{!6, !6, i64 0}
!6 = !{!"int", !7, i64 0}
!7 = !{!"omnipotent char", !8, i64 0}
!8 = !{!"Simple C++ TBAA"}
!9 = distinct !{!9, !10}
!10 = !{!"llvm.loop.mustprogress"}
!11 = distinct !{!11, !10}
!12 = distinct !{!12, !13}
!13 = !{!"llvm.loop.unroll.disable"}
!14 = !{!15, !15, i64 0}
!15 = !{!"vtable pointer", !8, i64 0}
!16 = !{!17, !20, i64 32}
!17 = !{!"_ZTSSt8ios_base", !18, i64 8, !18, i64 16, !19, i64 24, !20, i64 28, !20, i64 32, !21, i64 40, !22, i64 48, !7, i64 64, !6, i64 192, !21, i64 200, !23, i64 208}
!18 = !{!"long", !7, i64 0}
!19 = !{!"_ZTSSt13_Ios_Fmtflags", !7, i64 0}
!20 = !{!"_ZTSSt12_Ios_Iostate", !7, i64 0}
!21 = !{!"any pointer", !7, i64 0}
!22 = !{!"_ZTSNSt8ios_base6_WordsE", !21, i64 0, !18, i64 8}
!23 = !{!"_ZTSSt6locale", !21, i64 0}
!24 = distinct !{!24, !13}
!25 = !{!26, !21, i64 240}
!26 = !{!"_ZTSSt9basic_iosIcSt11char_traitsIcEE", !21, i64 216, !7, i64 224, !27, i64 225, !21, i64 232, !21, i64 240, !21, i64 248, !21, i64 256}
!27 = !{!"bool", !7, i64 0}
!28 = !{!29, !7, i64 56}
!29 = !{!"_ZTSSt5ctypeIcE", !21, i64 16, !27, i64 24, !21, i64 32, !21, i64 40, !21, i64 48, !7, i64 56, !7, i64 57, !7, i64 313, !7, i64 569}
!30 = !{!7, !7, i64 0}
!31 = distinct !{!31, !10}
!32 = distinct !{!32, !10}
